target datalayout = "e-m:e-p270:32:32-p271:32:32-p272:64:64-i64:64-i128:128-f80:128-n8:16:32:64-S128"
target triple = "x86_64-pc-linux-gnu"

%struct.jit_State = type { %struct.GCtrace, ptr, ptr, ptr, ptr, ptr, ptr, i32, i32, i32, i8, i8, %struct.IRType1, i8, %struct.FoldState, ptr, i32, i32, i32, i32, i32, i32, i32, [1 x i32], [5 x %union.TValue], [3 x %union.TValue], ptr, i32, i32, i32, i32, ptr, ptr, i32, i32, i8, ptr, i32, i32, i16, [101 x i16], [258 x i32], [15 x i32], [16 x ptr], [64 x %struct.HotPenalty], i32, [16 x %struct.BPropEntry], i32, %struct.ScEvEntry, ptr, i32, i32, i32, ptr, i32, i32, ptr, ptr, ptr, i64, i64, %union.TValue, ptr, i32, i32 }
%struct.GCtrace = type { %struct.GCRef, i8, i8, i16, i32, i32, %struct.GCRef, ptr, i32, i32, ptr, ptr, %struct.GCRef, %struct.MRef, i32, i32, ptr, i32, i16, i16, i16, i16, i16, i16, i16, i8, i8, i8, i8 }
%struct.GCRef = type { i64 }
%struct.MRef = type { i64 }
%struct.IRType1 = type { i8 }
%struct.FoldState = type { %union.IRIns, [2 x %union.IRIns], [2 x %union.IRIns] }
%union.IRIns = type { %struct.GCRef }
%struct.HotPenalty = type { %struct.MRef, i16, i16 }
%struct.BPropEntry = type { i16, i16, i32 }
%struct.ScEvEntry = type { %struct.MRef, i16, i16, i16, i16, %struct.IRType1, i8 }
%union.TValue = type { i64 }
%struct.RecordFFData = type { ptr, i64, i32 }
%struct.GG_State = type { %struct.lua_State, %struct.global_State, %struct.jit_State, [64 x i16], [243 x ptr], [57 x i32] }
%struct.lua_State = type { %struct.GCRef, i8, i8, i8, i8, %struct.MRef, %struct.GCRef, ptr, ptr, %struct.MRef, %struct.MRef, %struct.GCRef, %struct.GCRef, ptr, i32 }
%struct.global_State = type { ptr, ptr, %struct.GCState, %struct.GCstr, i8, i8, i8, i8, %struct.StrInternState, i32, %struct.GCRef, %struct.SBuf, %union.TValue, %union.TValue, %struct.Node, %union.TValue, %struct.GCupval, i32, i32, ptr, ptr, ptr, i32, i32, %struct.GCRef, %struct.MRef, %struct.MRef, %struct.PRNGState, [39 x %struct.GCRef] }
%struct.GCState = type { i64, i64, i8, i8, i8, i8, i32, %struct.GCRef, %struct.MRef, %struct.GCRef, %struct.GCRef, %struct.GCRef, %struct.GCRef, i64, i64, i32, i32, %struct.MRef }
%struct.GCstr = type { %struct.GCRef, i8, i8, i8, i8, i32, i32, i32 }
%struct.StrInternState = type { ptr, i32, i32, i32, i8, i8, i8, i8, i64 }
%struct.SBuf = type { ptr, ptr, ptr, %struct.MRef }
%struct.Node = type { %union.TValue, %union.TValue, %struct.MRef }
%struct.GCupval = type { %struct.GCRef, i8, i8, i8, i8, %union.anon, %struct.MRef, i32 }
%union.anon = type { %struct.anon.3 }
%struct.anon.3 = type { %struct.GCRef, %struct.GCRef }
%struct.PRNGState = type { [4 x i64] }
%struct.GCcdata = type { %struct.GCRef, i8, i8, i16 }
%struct.CType = type { i32, i32, i16, i16, %struct.GCRef }
%struct.anon = type { i16, i16, i16, i16 }
%struct.CTState = type { ptr, i32, i32, ptr, ptr, ptr, %struct.CCallback, [128 x i16] }
%struct.CCallback = type { [8 x %union.FPRCBArg], [8 x i64], ptr, ptr, ptr, i32, i32, i32 }
%union.FPRCBArg = type { double }

; Function Attrs: alwaysinline nounwind uwtable
define internal void @lj_ir_set_(ptr noundef %0, i16 noundef zeroext %1, i16 noundef zeroext %2, i16 noundef zeroext %3) #2 {
  %5 = alloca ptr, align 8
  %6 = alloca i16, align 2
  %7 = alloca i16, align 2
  %8 = alloca i16, align 2
  store ptr %0, ptr %5, align 8, !tbaa !4
  store i16 %1, ptr %6, align 2, !tbaa !70
  store i16 %2, ptr %7, align 2, !tbaa !70
  store i16 %3, ptr %8, align 2, !tbaa !70
  %9 = load i16, ptr %6, align 2, !tbaa !70
  %10 = load ptr, ptr %5, align 8, !tbaa !4
  %11 = getelementptr inbounds nuw %struct.jit_State, ptr %10, i32 0, i32 14
  %12 = getelementptr inbounds nuw %struct.FoldState, ptr %11, i32 0, i32 0
  %13 = getelementptr inbounds nuw %struct.anon, ptr %12, i32 0, i32 2
  store i16 %9, ptr %13, align 4, !tbaa !58
  %14 = load i16, ptr %7, align 2, !tbaa !70
  %15 = load ptr, ptr %5, align 8, !tbaa !4
  %16 = getelementptr inbounds nuw %struct.jit_State, ptr %15, i32 0, i32 14
  %17 = getelementptr inbounds nuw %struct.FoldState, ptr %16, i32 0, i32 0
  %18 = getelementptr inbounds nuw %struct.anon, ptr %17, i32 0, i32 0
  store i16 %14, ptr %18, align 8, !tbaa !58
  %19 = load i16, ptr %8, align 2, !tbaa !70
  %20 = load ptr, ptr %5, align 8, !tbaa !4
  %21 = getelementptr inbounds nuw %struct.jit_State, ptr %20, i32 0, i32 14
  %22 = getelementptr inbounds nuw %struct.FoldState, ptr %21, i32 0, i32 0
  %23 = getelementptr inbounds nuw %struct.anon, ptr %22, i32 0, i32 1
  store i16 %19, ptr %23, align 2, !tbaa !58
  ret void
}

; Function Attrs: alwaysinline nounwind uwtable
define internal i32 @ctype_check(ptr noundef %0, i32 noundef %1) #2 {
  %3 = alloca ptr, align 8
  %4 = alloca i32, align 4
  store ptr %0, ptr %3, align 8, !tbaa !49
  store i32 %1, ptr %4, align 4, !tbaa !31
  %5 = load i32, ptr %4, align 4, !tbaa !31
  ret i32 %5
}

; Function Attrs: nounwind uwtable
define internal ptr @argv2cdata(ptr noundef %0, i32 noundef %1, ptr noundef %2) #0 {
  %4 = alloca ptr, align 8
  %5 = alloca i32, align 4
  %6 = alloca ptr, align 8
  %7 = alloca ptr, align 8
  %8 = alloca i32, align 4
  store ptr %0, ptr %4, align 8, !tbaa !4
  store i32 %1, ptr %5, align 4, !tbaa !31
  store ptr %2, ptr %6, align 8, !tbaa !67
  call void @llvm.lifetime.start.p0(i64 8, ptr %7) #7
  call void @llvm.lifetime.start.p0(i64 4, ptr %8) #7
  %9 = load i32, ptr %5, align 4, !tbaa !31
  %10 = and i32 %9, 520093696
  %11 = icmp eq i32 %10, 167772160
  br i1 %11, label %14, label %12

12:                                               ; preds = %3
  %13 = load ptr, ptr %4, align 8, !tbaa !4
  call void @lj_trace_err(ptr noundef %13, i32 noundef 11) #8
  unreachable

14:                                               ; preds = %3
  %15 = load ptr, ptr %6, align 8, !tbaa !67
  %16 = getelementptr inbounds nuw %struct.GCRef, ptr %15, i32 0, i32 0
  %17 = load i64, ptr %16, align 8, !tbaa !58
  %18 = and i64 %17, 140737488355327
  %19 = inttoptr i64 %18 to ptr
  store ptr %19, ptr %7, align 8, !tbaa !36
  %20 = load ptr, ptr %4, align 8, !tbaa !4
  %21 = load i32, ptr %5, align 4, !tbaa !31
  %22 = trunc i32 %21 to i16
  call void @lj_ir_set_(ptr noundef %20, i16 noundef zeroext 17682, i16 noundef zeroext %22, i16 noundef zeroext 20)
  %23 = load ptr, ptr %4, align 8, !tbaa !4
  %24 = call i32 @lj_opt_fold(ptr noundef %23)
  store i32 %24, ptr %8, align 4, !tbaa !31
  %25 = load ptr, ptr %4, align 8, !tbaa !4
  %26 = load i32, ptr %8, align 4, !tbaa !31
  %27 = trunc i32 %26 to i16
  %28 = load ptr, ptr %4, align 8, !tbaa !4
  %29 = load ptr, ptr %7, align 8, !tbaa !36
  %30 = getelementptr inbounds nuw %struct.GCcdata, ptr %29, i32 0, i32 3
  %31 = load i16, ptr %30, align 2, !tbaa !51
  %32 = zext i16 %31 to i32
  %33 = call i32 @lj_ir_kint(ptr noundef %28, i32 noundef %32)
  %34 = trunc i32 %33 to i16
  call void @lj_ir_set_(ptr noundef %25, i16 noundef zeroext 2195, i16 noundef zeroext %27, i16 noundef zeroext %34)
  %35 = load ptr, ptr %4, align 8, !tbaa !4
  %36 = call i32 @lj_opt_fold(ptr noundef %35)
  %37 = load ptr, ptr %7, align 8, !tbaa !36
  call void @llvm.lifetime.end.p0(i64 4, ptr %8) #7
  call void @llvm.lifetime.end.p0(i64 8, ptr %7) #7
  ret ptr %37
}

; Function Attrs: alwaysinline nounwind uwtable
define internal ptr @ctype_get(ptr noundef %0, i32 noundef %1) #2 {
  %3 = alloca ptr, align 8
  %4 = alloca i32, align 4
  store ptr %0, ptr %3, align 8, !tbaa !49
  store i32 %1, ptr %4, align 4, !tbaa !31
  %5 = load ptr, ptr %3, align 8, !tbaa !49
  %6 = getelementptr inbounds nuw %struct.CTState, ptr %5, i32 0, i32 0
  %7 = load ptr, ptr %6, align 8, !tbaa !79
  %8 = load ptr, ptr %3, align 8, !tbaa !49
  %9 = load i32, ptr %4, align 4, !tbaa !31
  %10 = call i32 @ctype_check(ptr noundef %8, i32 noundef %9)
  %11 = zext i32 %10 to i64
  %12 = getelementptr inbounds nuw %struct.CType, ptr %7, i64 %11
  ret ptr %12
}

; Function Attrs: alwaysinline nounwind uwtable
define internal ptr @ctype_child(ptr noundef %0, ptr noundef %1) #2 {
  %3 = alloca ptr, align 8
  %4 = alloca ptr, align 8
  store ptr %0, ptr %3, align 8, !tbaa !49
  store ptr %1, ptr %4, align 8, !tbaa !53
  %5 = load ptr, ptr %3, align 8, !tbaa !49
  %6 = load ptr, ptr %4, align 8, !tbaa !53
  %7 = getelementptr inbounds nuw %struct.CType, ptr %6, i32 0, i32 0
  %8 = load i32, ptr %7, align 8, !tbaa !55
  %9 = and i32 %8, 65535
  %10 = call ptr @ctype_get(ptr noundef %5, i32 noundef %9)
  ret ptr %10
}

; Function Attrs: nounwind uwtable
define hidden void @lj_crecord_tonumber(ptr noundef %0, ptr noundef %1) #0 {
  %3 = alloca ptr, align 8
  %4 = alloca ptr, align 8
  %5 = alloca ptr, align 8
  %6 = alloca ptr, align 8
  %7 = alloca ptr, align 8
  store ptr %0, ptr %3, align 8, !tbaa !4
  store ptr %1, ptr %4, align 8, !tbaa !9
  call void @llvm.lifetime.start.p0(i64 8, ptr %5) #7
  %8 = load ptr, ptr %3, align 8, !tbaa !4
  %9 = getelementptr inbounds i8, ptr %8, i64 -832
  %10 = getelementptr inbounds nuw %struct.GG_State, ptr %9, i32 0, i32 1
  %11 = getelementptr inbounds nuw %struct.global_State, ptr %10, i32 0, i32 26
  %12 = getelementptr inbounds nuw %struct.MRef, ptr %11, i32 0, i32 0
  %13 = load i64, ptr %12, align 8, !tbaa !38
  %14 = inttoptr i64 %13 to ptr
  store ptr %14, ptr %5, align 8, !tbaa !49
  call void @llvm.lifetime.start.p0(i64 8, ptr %6) #7
  call void @llvm.lifetime.start.p0(i64 8, ptr %7) #7
  %15 = load ptr, ptr %5, align 8, !tbaa !49
  %16 = load ptr, ptr %4, align 8, !tbaa !9
  %17 = getelementptr inbounds nuw %struct.RecordFFData, ptr %16, i32 0, i32 0
  %18 = load ptr, ptr %17, align 8, !tbaa !33
  %19 = getelementptr inbounds %union.TValue, ptr %18, i64 0
  %20 = getelementptr inbounds nuw %struct.GCRef, ptr %19, i32 0, i32 0
  %21 = load i64, ptr %20, align 8, !tbaa !58
  %22 = and i64 %21, 140737488355327
  %23 = inttoptr i64 %22 to ptr
  %24 = getelementptr inbounds nuw %struct.GCcdata, ptr %23, i32 0, i32 3
  %25 = load i16, ptr %24, align 2, !tbaa !58
  %26 = zext i16 %25 to i32
  %27 = call ptr @lj_ctype_rawref(ptr noundef %15, i32 noundef %26)
  store ptr %27, ptr %7, align 8, !tbaa !53
  %28 = load ptr, ptr %7, align 8, !tbaa !53
  %29 = getelementptr inbounds nuw %struct.CType, ptr %28, i32 0, i32 0
  %30 = load i32, ptr %29, align 8, !tbaa !55
  %31 = lshr i32 %30, 28
  %32 = icmp eq i32 %31, 5
  br i1 %32, label %33, label %37

33:                                               ; preds = %2
  %34 = load ptr, ptr %5, align 8, !tbaa !49
  %35 = load ptr, ptr %7, align 8, !tbaa !53
  %36 = call ptr @ctype_child(ptr noundef %34, ptr noundef %35)
  store ptr %36, ptr %7, align 8, !tbaa !53
  br label %37

37:                                               ; preds = %33, %2
  %38 = load ptr, ptr %7, align 8, !tbaa !53
  %39 = getelementptr inbounds nuw %struct.CType, ptr %38, i32 0, i32 0
  %40 = load i32, ptr %39, align 8, !tbaa !55
  %41 = lshr i32 %40, 28
  %42 = icmp eq i32 %41, 0
  br i1 %42, label %49, label %43

43:                                               ; preds = %37
  %44 = load ptr, ptr %7, align 8, !tbaa !53
  %45 = getelementptr inbounds nuw %struct.CType, ptr %44, i32 0, i32 0
  %46 = load i32, ptr %45, align 8, !tbaa !55
  %47 = and i32 %46, -201326592
  %48 = icmp eq i32 %47, 872415232
  br i1 %48, label %49, label %94

49:                                               ; preds = %43, %37
  %50 = load ptr, ptr %7, align 8, !tbaa !53
  %51 = getelementptr inbounds nuw %struct.CType, ptr %50, i32 0, i32 0
  %52 = load i32, ptr %51, align 8, !tbaa !55
  %53 = and i32 %52, -201326592
  %54 = icmp eq i32 %53, 0
  br i1 %54, label %55, label %74

55:                                               ; preds = %49
  %56 = load ptr, ptr %7, align 8, !tbaa !53
  %57 = getelementptr inbounds nuw %struct.CType, ptr %56, i32 0, i32 1
  %58 = load i32, ptr %57, align 4, !tbaa !57
  %59 = icmp ule i32 %58, 4
  br i1 %59, label %60, label %74

60:                                               ; preds = %55
  %61 = load ptr, ptr %7, align 8, !tbaa !53
  %62 = getelementptr inbounds nuw %struct.CType, ptr %61, i32 0, i32 1
  %63 = load i32, ptr %62, align 4, !tbaa !57
  %64 = icmp eq i32 %63, 4
  br i1 %64, label %65, label %71

65:                                               ; preds = %60
  %66 = load ptr, ptr %7, align 8, !tbaa !53
  %67 = getelementptr inbounds nuw %struct.CType, ptr %66, i32 0, i32 0
  %68 = load i32, ptr %67, align 8, !tbaa !55
  %69 = and i32 %68, 8388608
  %70 = icmp ne i32 %69, 0
  br i1 %70, label %74, label %71

71:                                               ; preds = %65, %60
  %72 = load ptr, ptr %5, align 8, !tbaa !49
  %73 = call ptr @ctype_get(ptr noundef %72, i32 noundef 9)
  store ptr %73, ptr %6, align 8, !tbaa !53
  br label %77

74:                                               ; preds = %65, %55, %49
  %75 = load ptr, ptr %5, align 8, !tbaa !49
  %76 = call ptr @ctype_get(ptr noundef %75, i32 noundef 14)
  store ptr %76, ptr %6, align 8, !tbaa !53
  br label %77

77:                                               ; preds = %74, %71
  %78 = load ptr, ptr %3, align 8, !tbaa !4
  %79 = load ptr, ptr %6, align 8, !tbaa !53
  %80 = load ptr, ptr %3, align 8, !tbaa !4
  %81 = getelementptr inbounds nuw %struct.jit_State, ptr %80, i32 0, i32 6
  %82 = load ptr, ptr %81, align 8, !tbaa !11
  %83 = getelementptr inbounds i32, ptr %82, i64 0
  %84 = load i32, ptr %83, align 4, !tbaa !31
  %85 = load ptr, ptr %4, align 8, !tbaa !9
  %86 = getelementptr inbounds nuw %struct.RecordFFData, ptr %85, i32 0, i32 0
  %87 = load ptr, ptr %86, align 8, !tbaa !33
  %88 = getelementptr inbounds %union.TValue, ptr %87, i64 0
  %89 = call i32 @crec_ct_tv(ptr noundef %78, ptr noundef %79, i32 noundef 0, i32 noundef %84, ptr noundef %88)
  %90 = load ptr, ptr %3, align 8, !tbaa !4
  %91 = getelementptr inbounds nuw %struct.jit_State, ptr %90, i32 0, i32 6
  %92 = load ptr, ptr %91, align 8, !tbaa !11
  %93 = getelementptr inbounds i32, ptr %92, i64 0
  store i32 %89, ptr %93, align 4, !tbaa !31
  br label %110

94:                                               ; preds = %43
  %95 = load ptr, ptr %3, align 8, !tbaa !4
  %96 = load ptr, ptr %3, align 8, !tbaa !4
  %97 = getelementptr inbounds nuw %struct.jit_State, ptr %96, i32 0, i32 6
  %98 = load ptr, ptr %97, align 8, !tbaa !11
  %99 = getelementptr inbounds i32, ptr %98, i64 0
  %100 = load i32, ptr %99, align 4, !tbaa !31
  %101 = load ptr, ptr %4, align 8, !tbaa !9
  %102 = getelementptr inbounds nuw %struct.RecordFFData, ptr %101, i32 0, i32 0
  %103 = load ptr, ptr %102, align 8, !tbaa !33
  %104 = getelementptr inbounds %union.TValue, ptr %103, i64 0
  %105 = call ptr @argv2cdata(ptr noundef %95, i32 noundef %100, ptr noundef %104)
  %106 = load ptr, ptr %3, align 8, !tbaa !4
  %107 = getelementptr inbounds nuw %struct.jit_State, ptr %106, i32 0, i32 6
  %108 = load ptr, ptr %107, align 8, !tbaa !11
  %109 = getelementptr inbounds i32, ptr %108, i64 0
  store i32 32767, ptr %109, align 4, !tbaa !31
  br label %110

110:                                              ; preds = %94, %77
  call void @llvm.lifetime.end.p0(i64 8, ptr %7) #7
  call void @llvm.lifetime.end.p0(i64 8, ptr %6) #7
  call void @llvm.lifetime.end.p0(i64 8, ptr %5) #7
  ret void
}