; Function Attrs: nounwind uwtable
define hidden void @lj_crecord_tonumber(ptr noundef %0, ptr noundef readonly captures(none) %1) local_unnamed_addr #0 {
  %3 = getelementptr inbounds i8, ptr %0, i64 -352
  %4 = load i64, ptr %3, align 8, !tbaa !34
  %5 = inttoptr i64 %4 to ptr
  %6 = load ptr, ptr %1, align 8, !tbaa !28
  %7 = load i64, ptr %6, align 8, !tbaa !31
  %8 = and i64 %7, 140737488355327
  %9 = inttoptr i64 %8 to ptr
  %10 = getelementptr inbounds nuw i8, ptr %9, i64 10
  %11 = load i16, ptr %10, align 2, !tbaa !31
  %12 = zext i16 %11 to i32
  %13 = tail call ptr @lj_ctype_rawref(ptr noundef %5, i32 noundef %12) #8
  %14 = load i32, ptr %13, align 8, !tbaa !53
  %.mask = and i32 %14, -268435456
  %15 = icmp eq i32 %.mask, 1342177280
  br i1 %15, label %16, label %21

16:                                               ; preds = %2
  %17 = and i32 %14, 65535
  %18 = load ptr, ptr %5, align 8, !tbaa !45
  %19 = zext nneg i32 %17 to i64
  %20 = getelementptr inbounds nuw %struct.CType, ptr %18, i64 %19
  %.pre = load i32, ptr %20, align 8, !tbaa !53
  br label %21

21:                                               ; preds = %16, %2
  %22 = phi i32 [ %.pre, %16 ], [ %14, %2 ]
  %.0 = phi ptr [ %20, %16 ], [ %13, %2 ]
  %23 = icmp ult i32 %22, 268435456
  %24 = and i32 %22, -201326592
  %25 = icmp eq i32 %24, 872415232
  %or.cond = or i1 %23, %25
  br i1 %or.cond, label %26, label %45

26:                                               ; preds = %21
  %27 = icmp eq i32 %24, 0
  br i1 %27, label %28, label %35

28:                                               ; preds = %26
  %29 = getelementptr inbounds nuw i8, ptr %.0, i64 4
  %30 = load i32, ptr %29, align 4, !tbaa !57
  %31 = icmp ult i32 %30, 5
  br i1 %31, label %32, label %35

32:                                               ; preds = %28
  %33 = icmp ne i32 %30, 4
  %34 = and i32 %22, 8388608
  %.not = icmp eq i32 %34, 0
  %or.cond26 = or i1 %.not, %33
  br i1 %or.cond26, label %36, label %35

35:                                               ; preds = %32, %28, %26
  br label %36

36:                                               ; preds = %32, %35
  %.sink27 = phi i64 [ 336, %35 ], [ 216, %32 ]
  %37 = load ptr, ptr %5, align 8, !tbaa !45
  %38 = getelementptr inbounds nuw i8, ptr %37, i64 %.sink27
  %39 = getelementptr inbounds nuw i8, ptr %0, i64 160
  %40 = load ptr, ptr %39, align 8, !tbaa !4
  %41 = load i32, ptr %40, align 4, !tbaa !27
  %42 = load ptr, ptr %1, align 8, !tbaa !28
  %43 = tail call fastcc i32 @crec_ct_tv(ptr noundef nonnull %0, ptr noundef nonnull %38, i32 noundef 0, i32 noundef %41, ptr noundef %42)
  %44 = load ptr, ptr %39, align 8, !tbaa !4
  store i32 %43, ptr %44, align 4, !tbaa !27
  br label %69

45:                                               ; preds = %21
  %46 = getelementptr inbounds nuw i8, ptr %0, i64 160
  %47 = load ptr, ptr %46, align 8, !tbaa !4
  %48 = load i32, ptr %47, align 4, !tbaa !27
  %49 = and i32 %48, 520093696
  %50 = icmp eq i32 %49, 167772160
  br i1 %50, label %argv2cdata.exit, label %51

51:                                               ; preds = %45
  tail call void @lj_trace_err(ptr noundef nonnull %0, i32 noundef 11) #7
  unreachable

argv2cdata.exit:                                  ; preds = %45
  %52 = load ptr, ptr %1, align 8, !tbaa !28
  %53 = load i64, ptr %52, align 8, !tbaa !31
  %54 = and i64 %53, 140737488355327
  %55 = inttoptr i64 %54 to ptr
  %56 = trunc i32 %48 to i16
  %57 = getelementptr inbounds nuw i8, ptr %0, i64 184
  %58 = getelementptr inbounds nuw i8, ptr %0, i64 188
  store i16 17682, ptr %58, align 4, !tbaa !31
  store i16 %56, ptr %57, align 8, !tbaa !31
  %59 = getelementptr inbounds nuw i8, ptr %0, i64 186
  store i16 20, ptr %59, align 2, !tbaa !31
  %60 = tail call i32 @lj_opt_fold(ptr noundef nonnull %0) #8
  %61 = trunc i32 %60 to i16
  %62 = getelementptr inbounds nuw i8, ptr %55, i64 10
  %63 = load i16, ptr %62, align 2, !tbaa !32
  %64 = zext i16 %63 to i32
  %65 = tail call i32 @lj_ir_kint(ptr noundef nonnull %0, i32 noundef %64) #8
  %66 = trunc i32 %65 to i16
  store i16 2195, ptr %58, align 4, !tbaa !31
  store i16 %61, ptr %57, align 8, !tbaa !31
  store i16 %66, ptr %59, align 2, !tbaa !31
  %67 = tail call i32 @lj_opt_fold(ptr noundef nonnull %0) #8
  %68 = load ptr, ptr %46, align 8, !tbaa !4
  store i32 32767, ptr %68, align 4, !tbaa !27
  br label %69

69:                                               ; preds = %argv2cdata.exit, %36
  ret void
}